; Function Attrs: mustprogress nofree nounwind willreturn memory(write) uwtable
define internal noundef double @_ZN8QuantLib12_GLOBAL__N_13f_5Edd(double noundef %_nu, double noundef %_lambda) #13 {
entry:
  %call.i = tail call noundef double @pow(double noundef %_lambda, double noundef 5.000000e+00) #35, !tbaa !57
  %call.i19 = tail call noundef double @pow(double noundef %_lambda, double noundef 4.000000e+00) #35, !tbaa !57
  %mul = fmul double %call.i19, 5.000000e+00
  %add = fadd double %_nu, 8.000000e+00
  %0 = tail call double @llvm.fmuladd.f64(double %mul, double %add, double %call.i)
  %call.i20 = tail call noundef double @pow(double noundef %_lambda, double noundef 3.000000e+00) #35, !tbaa !57
  %mul4 = fmul double %call.i20, 1.000000e+01
  %1 = tail call double @llvm.fmuladd.f64(double %_nu, double 1.400000e+01, double 4.800000e+01)
  %square = fmul double %_nu, %_nu
  %add7 = fadd double %1, %square
  %2 = tail call double @llvm.fmuladd.f64(double %mul4, double %add7, double %0)
  %square31 = fmul double %_lambda, %_lambda
  %mul10 = fmul double %square31, 1.000000e+01
  %3 = tail call double @llvm.fmuladd.f64(double %_nu, double 1.040000e+02, double 1.920000e+02)
  %4 = tail call double @llvm.fmuladd.f64(double %square, double 1.800000e+01, double %3)
  %call.i24 = tail call noundef double @pow(double noundef %_nu, double noundef 3.000000e+00) #35, !tbaa !57
  %add15 = fadd double %4, %call.i24
  %5 = tail call double @llvm.fmuladd.f64(double %mul10, double %add15, double %2)
  %mul17 = fmul double %_lambda, 5.000000e+00
  %6 = tail call double @llvm.fmuladd.f64(double %_nu, double 4.000000e+02, double 3.840000e+02)
  %7 = tail call double @llvm.fmuladd.f64(double %square, double 1.400000e+02, double %6)
  %call.i26 = tail call noundef double @pow(double noundef %_nu, double noundef 3.000000e+00) #35, !tbaa !57
  %8 = tail call double @llvm.fmuladd.f64(double %call.i26, double 2.000000e+01, double %7)
  %call.i27 = tail call noundef double @pow(double noundef %_nu, double noundef 4.000000e+00) #35, !tbaa !57
  %add24 = fadd double %8, %call.i27
  %9 = tail call double @llvm.fmuladd.f64(double %mul17, double %add24, double %5)
  %call.i29 = tail call noundef double @pow(double noundef %_nu, double noundef 3.000000e+00) #35, !tbaa !57
  %10 = tail call double @llvm.fmuladd.f64(double %call.i29, double 2.000000e+01, double %7)
  %call.i30 = tail call noundef double @pow(double noundef %_nu, double noundef 4.000000e+00) #35, !tbaa !57
  %add32 = fadd double %10, %call.i30
  %11 = tail call double @llvm.fmuladd.f64(double %_nu, double %add32, double %9)
  ret double %11
}